; Function Attrs: nounwind uwtable
define ptr @l_Array_foldlMUnsafe_fold___at_Lake_getUrl___spec__1(ptr noundef %0, ptr noundef readonly captures(none) %1, i64 noundef %2, i64 noundef %3, ptr noundef %4) local_unnamed_addr #1 {
  %.not48 = icmp eq i64 %2, %3
  br i1 %.not48, label %.._crit_edge_crit_edge, label %.lr.ph

.._crit_edge_crit_edge:                           ; preds = %5
  %.pre = ptrtoint ptr %0 to i64
  %.pre51 = and i64 %.pre, 1
  br label %._crit_edge

.lr.ph:                                           ; preds = %5
  %6 = getelementptr inbounds nuw i8, ptr %1, i64 24
  %7 = ptrtoint ptr %0 to i64
  %8 = and i64 %7, 1
  %.not44 = icmp eq i64 %8, 0
  br label %9

9:                                                ; preds = %.lr.ph, %lean_dec.exit
  %.02650 = phi i64 [ %2, %.lr.ph ], [ %57, %lean_dec.exit ]
  %.02849 = phi ptr [ %4, %.lr.ph ], [ %40, %lean_dec.exit ]
  %10 = getelementptr inbounds nuw [0 x ptr], ptr %6, i64 0, i64 %.02650
  %11 = load ptr, ptr %10, align 8, !tbaa !10
  %12 = ptrtoint ptr %11 to i64
  %13 = and i64 %12, 1
  %.not.i33 = icmp eq i64 %13, 0
  br i1 %.not.i33, label %14, label %lean_array_uget.exit

14:                                               ; preds = %9
  %.val.i.i = load i32, ptr %11, align 4, !tbaa !4
  %15 = icmp sgt i32 %.val.i.i, 0
  br i1 %15, label %16, label %18, !prof !9

16:                                               ; preds = %14
  %17 = add nuw i32 %.val.i.i, 1
  store i32 %17, ptr %11, align 4, !tbaa !4
  br label %lean_array_uget.exit

18:                                               ; preds = %14
  %.not.i.i = icmp eq i32 %.val.i.i, 0
  br i1 %.not.i.i, label %lean_array_uget.exit, label %19

19:                                               ; preds = %18
  tail call void @lean_inc_ref_cold(ptr noundef nonnull %11) #7
  br label %lean_array_uget.exit

lean_array_uget.exit:                             ; preds = %9, %16, %18, %19
  br i1 %.not44, label %20, label %lean_inc.exit

20:                                               ; preds = %lean_array_uget.exit
  %.val.i = load i32, ptr %0, align 4, !tbaa !4
  %21 = icmp sgt i32 %.val.i, 0
  br i1 %21, label %22, label %24, !prof !9

22:                                               ; preds = %20
  %23 = add nuw i32 %.val.i, 1
  store i32 %23, ptr %0, align 4, !tbaa !4
  br label %lean_inc.exit

24:                                               ; preds = %20
  %.not.i34 = icmp eq i32 %.val.i, 0
  br i1 %.not.i34, label %lean_inc.exit, label %25

25:                                               ; preds = %24
  tail call void @lean_inc_ref_cold(ptr noundef nonnull %0) #7
  br label %lean_inc.exit

lean_inc.exit:                                    ; preds = %25, %24, %22, %lean_array_uget.exit
  tail call void @lean_inc_heartbeat() #7
  %26 = tail call noalias ptr @mi_malloc_small(i64 noundef 24) #7
  %27 = icmp eq ptr %26, null
  br i1 %27, label %28, label %lean_alloc_ctor.exit

28:                                               ; preds = %lean_inc.exit
  tail call void @lean_internal_panic_out_of_memory() #8
  unreachable

lean_alloc_ctor.exit:                             ; preds = %lean_inc.exit
  %29 = getelementptr inbounds nuw i8, ptr %26, i64 4
  store i32 1, ptr %26, align 4, !tbaa !4
  store i32 16908312, ptr %29, align 4
  %30 = getelementptr inbounds nuw i8, ptr %26, i64 8
  store ptr %11, ptr %30, align 8, !tbaa !10
  %31 = getelementptr inbounds nuw i8, ptr %26, i64 16
  store ptr %0, ptr %31, align 8, !tbaa !10
  %32 = load ptr, ptr @l_Array_foldlMUnsafe_fold___at_Lake_getUrl___spec__1___closed__1, align 8, !tbaa !10
  tail call void @lean_inc_heartbeat() #7
  %33 = tail call noalias ptr @mi_malloc_small(i64 noundef 24) #7
  %34 = icmp eq ptr %33, null
  br i1 %34, label %35, label %lean_alloc_ctor.exit35

35:                                               ; preds = %lean_alloc_ctor.exit
  tail call void @lean_internal_panic_out_of_memory() #8
  unreachable

lean_alloc_ctor.exit35:                           ; preds = %lean_alloc_ctor.exit
  %36 = getelementptr inbounds nuw i8, ptr %33, i64 4
  store i32 1, ptr %33, align 4, !tbaa !4
  store i32 16908312, ptr %36, align 4
  %37 = getelementptr inbounds nuw i8, ptr %33, i64 8
  store ptr %32, ptr %37, align 8, !tbaa !10
  %38 = getelementptr inbounds nuw i8, ptr %33, i64 16
  store ptr %26, ptr %38, align 8, !tbaa !10
  %39 = tail call ptr @lean_array_mk(ptr noundef nonnull %33) #7
  %40 = tail call ptr @l_Array_append___rarg(ptr noundef %.02849, ptr noundef %39) #7
  %41 = ptrtoint ptr %39 to i64
  %42 = and i64 %41, 1
  %.not45 = icmp eq i64 %42, 0
  br i1 %.not45, label %43, label %lean_dec.exit

43:                                               ; preds = %lean_alloc_ctor.exit35
  %44 = load i32, ptr %39, align 4, !tbaa !4
  %45 = icmp sgt i32 %44, 1
  br i1 %45, label %46, label %48, !prof !9

46:                                               ; preds = %43
  %47 = add nsw i32 %44, -1
  store i32 %47, ptr %39, align 4, !tbaa !4
  br label %lean_dec.exit

48:                                               ; preds = %43
  %.not.i = icmp eq i32 %44, 0
  br i1 %.not.i, label %lean_dec.exit, label %49

49:                                               ; preds = %48
  tail call void @lean_dec_ref_cold(ptr noundef nonnull %39) #7
  br label %lean_dec.exit

._crit_edge:                                      ; preds = %lean_dec.exit, %.._crit_edge_crit_edge
  %.pre-phi52 = phi i64 [ %.pre51, %.._crit_edge_crit_edge ], [ %8, %lean_dec.exit ]
  %.028.lcssa = phi ptr [ %4, %.._crit_edge_crit_edge ], [ %40, %lean_dec.exit ]
  %.not43 = icmp eq i64 %.pre-phi52, 0
  br i1 %.not43, label %50, label %58

50:                                               ; preds = %._crit_edge
  %51 = load i32, ptr %0, align 4, !tbaa !4
  %52 = icmp sgt i32 %51, 1
  br i1 %52, label %53, label %55, !prof !9

53:                                               ; preds = %50
  %54 = add nsw i32 %51, -1
  store i32 %54, ptr %0, align 4, !tbaa !4
  br label %58

55:                                               ; preds = %50
  %.not.i31 = icmp eq i32 %51, 0
  br i1 %.not.i31, label %58, label %56

56:                                               ; preds = %55
  tail call void @lean_dec_ref_cold(ptr noundef nonnull %0) #7
  br label %58

lean_dec.exit:                                    ; preds = %lean_alloc_ctor.exit35, %46, %48, %49
  %57 = add i64 %.02650, 1
  %.not = icmp eq i64 %57, %3
  br i1 %.not, label %._crit_edge, label %9

58:                                               ; preds = %56, %55, %53, %._crit_edge
  ret ptr %.028.lcssa
}